target datalayout = "e-m:e-p270:32:32-p271:32:32-p272:64:64-i64:64-i128:128-f80:128-n8:16:32:64-S128"
target triple = "x86_64-pc-linux-gnu"

%class.GrowableArrayBase = type { i32, i32 }
%class.GrowableArrayMetadata = type { i64 }
%class.Node = type <{ ptr, ptr, ptr, i32, i32, i32, i32, i32, i32, i32, [4 x i8] }>
%class.VectorSet = type { i32, ptr, i32, ptr }
%class.Node_List = type <{ %class.Node_Array, i32, [4 x i8] }>
%class.Node_Array = type { ptr, i32, ptr }
%class.Unique_Node_List = type <{ %class.Node_List.base, [4 x i8], %class.VectorSet, i32, [4 x i8] }>
%class.Node_List.base = type <{ %class.Node_Array, i32 }>
%class.ConnectionGraph = type { %class.GrowableArray.18, %class.GrowableArray.18, %class.VectorSet, i32, i8, i8, ptr, ptr, ptr, %class.Unique_Node_List, i32, i32, double, ptr, %class.Node_Array }
%class.GrowableArray.18 = type { %class.GrowableArrayWithAllocator.19, %class.GrowableArrayMetadata }
%class.GrowableArrayWithAllocator.19 = type { %class.GrowableArrayView.20 }
%class.GrowableArrayView.20 = type { %class.GrowableArrayBase, ptr }

; Function Attrs: mustprogress nounwind uwtable
define linkonce_odr hidden void @_ZN10Node_Array3mapEjP4Node(ptr noundef nonnull align 8 dereferenceable(24) %0, i32 noundef %1, ptr noundef %2) #1 comdat align 2 {
  %4 = alloca ptr, align 8
  %5 = alloca i32, align 4
  %6 = alloca ptr, align 8
  store ptr %0, ptr %4, align 8
  store i32 %1, ptr %5, align 4
  store ptr %2, ptr %6, align 8
  %7 = load ptr, ptr %4, align 8
  %8 = load i32, ptr %5, align 4
  %9 = getelementptr inbounds %class.Node_Array, ptr %7, i32 0, i32 1
  %10 = load i32, ptr %9, align 8
  %11 = icmp uge i32 %8, %10
  br i1 %11, label %12, label %14

12:                                               ; preds = %3
  %13 = load i32, ptr %5, align 4
  call void @_ZN10Node_Array4growEj(ptr noundef nonnull align 8 dereferenceable(24) %7, i32 noundef %13)
  br label %14

14:                                               ; preds = %12, %3
  %15 = load ptr, ptr %6, align 8
  %16 = getelementptr inbounds %class.Node_Array, ptr %7, i32 0, i32 2
  %17 = load ptr, ptr %16, align 8
  %18 = load i32, ptr %5, align 4
  %19 = zext i32 %18 to i64
  %20 = getelementptr inbounds ptr, ptr %17, i64 %19
  store ptr %15, ptr %20, align 8
  ret void
}

; Function Attrs: mustprogress nounwind uwtable
define linkonce_odr hidden void @_ZN9Node_List4pushEP4Node(ptr noundef nonnull align 8 dereferenceable(28) %0, ptr noundef %1) #1 comdat align 2 {
  %3 = alloca ptr, align 8
  %4 = alloca ptr, align 8
  store ptr %0, ptr %3, align 8
  store ptr %1, ptr %4, align 8
  %5 = load ptr, ptr %3, align 8
  %6 = getelementptr inbounds %class.Node_List, ptr %5, i32 0, i32 1
  %7 = load i32, ptr %6, align 8
  %8 = add i32 %7, 1
  store i32 %8, ptr %6, align 8
  %9 = load ptr, ptr %4, align 8
  call void @_ZN10Node_Array3mapEjP4Node(ptr noundef nonnull align 8 dereferenceable(24) %5, i32 noundef %7, ptr noundef %9)
  ret void
}

; Function Attrs: mustprogress nounwind uwtable
define linkonce_odr hidden noundef zeroext i1 @_ZN9VectorSet8test_setEj(ptr noundef nonnull align 8 dereferenceable(32) %0, i32 noundef %1) #1 comdat align 2 {
  %3 = alloca ptr, align 8
  %4 = alloca i32, align 4
  %5 = alloca i32, align 4
  %6 = alloca i32, align 4
  %7 = alloca i32, align 4
  store ptr %0, ptr %3, align 8
  store i32 %1, ptr %4, align 4
  %8 = load ptr, ptr %3, align 8
  %9 = load i32, ptr %4, align 4
  %10 = lshr i32 %9, 5
  store i32 %10, ptr %5, align 4
  %11 = load i32, ptr %5, align 4
  %12 = getelementptr inbounds %class.VectorSet, ptr %8, i32 0, i32 0
  %13 = load i32, ptr %12, align 8
  %14 = icmp uge i32 %11, %13
  br i1 %14, label %15, label %17

15:                                               ; preds = %2
  %16 = load i32, ptr %5, align 4
  call void @_ZN9VectorSet4growEj(ptr noundef nonnull align 8 dereferenceable(32) %8, i32 noundef %16)
  br label %17

17:                                               ; preds = %15, %2
  %18 = load i32, ptr %4, align 4
  %19 = and i32 %18, 31
  %20 = shl i32 1, %19
  store i32 %20, ptr %6, align 4
  %21 = getelementptr inbounds %class.VectorSet, ptr %8, i32 0, i32 1
  %22 = load ptr, ptr %21, align 8
  %23 = load i32, ptr %5, align 4
  %24 = zext i32 %23 to i64
  %25 = getelementptr inbounds i32, ptr %22, i64 %24
  %26 = load i32, ptr %25, align 4
  store i32 %26, ptr %7, align 4
  %27 = load i32, ptr %7, align 4
  %28 = load i32, ptr %6, align 4
  %29 = or i32 %27, %28
  %30 = getelementptr inbounds %class.VectorSet, ptr %8, i32 0, i32 1
  %31 = load ptr, ptr %30, align 8
  %32 = load i32, ptr %5, align 4
  %33 = zext i32 %32 to i64
  %34 = getelementptr inbounds i32, ptr %31, i64 %33
  store i32 %29, ptr %34, align 4
  %35 = load i32, ptr %7, align 4
  %36 = load i32, ptr %6, align 4
  %37 = and i32 %35, %36
  %38 = icmp ne i32 %37, 0
  ret i1 %38
}

; Function Attrs: mustprogress nounwind uwtable
define linkonce_odr hidden noundef nonnull align 8 dereferenceable(8) ptr @_ZNK17GrowableArrayViewIP12PointsToNodeE2atEi(ptr noundef nonnull align 8 dereferenceable(16) %0, i32 noundef %1) #1 comdat align 2 {
  %3 = alloca ptr, align 8
  %4 = alloca i32, align 4
  store ptr %0, ptr %3, align 8
  store i32 %1, ptr %4, align 4
  %5 = load ptr, ptr %3, align 8
  %6 = getelementptr inbounds %class.GrowableArrayView.20, ptr %5, i32 0, i32 1
  %7 = load ptr, ptr %6, align 8
  %8 = load i32, ptr %4, align 4
  %9 = sext i32 %8 to i64
  %10 = getelementptr inbounds ptr, ptr %7, i64 %9
  ret ptr %10
}

; Function Attrs: mustprogress nounwind uwtable
define linkonce_odr hidden void @_ZN16Unique_Node_List4pushEP4Node(ptr noundef nonnull align 8 dereferenceable(68) %0, ptr noundef %1) #1 comdat align 2 {
  %3 = alloca ptr, align 8
  %4 = alloca ptr, align 8
  store ptr %0, ptr %3, align 8
  store ptr %1, ptr %4, align 8
  %5 = load ptr, ptr %3, align 8
  %6 = getelementptr inbounds %class.Unique_Node_List, ptr %5, i32 0, i32 2
  %7 = load ptr, ptr %4, align 8
  %8 = getelementptr inbounds %class.Node, ptr %7, i32 0, i32 7
  %9 = load i32, ptr %8, align 8
  %10 = call noundef zeroext i1 @_ZN9VectorSet8test_setEj(ptr noundef nonnull align 8 dereferenceable(32) %6, i32 noundef %9)
  br i1 %10, label %13, label %11

11:                                               ; preds = %2
  %12 = load ptr, ptr %4, align 8
  call void @_ZN9Node_List4pushEP4Node(ptr noundef nonnull align 8 dereferenceable(28) %5, ptr noundef %12)
  br label %13

13:                                               ; preds = %11, %2
  ret void
}

; Function Attrs: mustprogress nounwind uwtable
define linkonce_odr hidden noundef ptr @_ZNK15ConnectionGraph10ptnode_adrEi(ptr noundef nonnull align 8 dereferenceable(232) %0, i32 noundef %1) #1 comdat align 2 {
  %3 = alloca ptr, align 8
  %4 = alloca i32, align 4
  store ptr %0, ptr %3, align 8
  store i32 %1, ptr %4, align 4
  %5 = load ptr, ptr %3, align 8
  %6 = getelementptr inbounds %class.ConnectionGraph, ptr %5, i32 0, i32 0
  %7 = load i32, ptr %4, align 4
  %8 = call noundef nonnull align 8 dereferenceable(8) ptr @_ZNK17GrowableArrayViewIP12PointsToNodeE2atEi(ptr noundef nonnull align 8 dereferenceable(16) %6, i32 noundef %7)
  %9 = load ptr, ptr %8, align 8
  ret ptr %9
}

; Function Attrs: mustprogress nounwind uwtable
define linkonce_odr hidden void @_ZN15ConnectionGraph22add_local_var_and_edgeEP4NodeN12PointsToNode11EscapeStateES1_P16Unique_Node_List(ptr noundef nonnull align 8 dereferenceable(232) %0, ptr noundef %1, i32 noundef %2, ptr noundef %3, ptr noundef %4) #1 comdat align 2 {
  %6 = alloca ptr, align 8
  %7 = alloca ptr, align 8
  %8 = alloca i32, align 4
  %9 = alloca ptr, align 8
  %10 = alloca ptr, align 8
  %11 = alloca ptr, align 8
  store ptr %0, ptr %6, align 8
  store ptr %1, ptr %7, align 8
  store i32 %2, ptr %8, align 4
  store ptr %3, ptr %9, align 8
  store ptr %4, ptr %10, align 8
  %12 = load ptr, ptr %6, align 8
  %13 = load ptr, ptr %9, align 8
  %14 = getelementptr inbounds %class.Node, ptr %13, i32 0, i32 7
  %15 = load i32, ptr %14, align 8
  %16 = call noundef ptr @_ZNK15ConnectionGraph10ptnode_adrEi(ptr noundef nonnull align 8 dereferenceable(232) %12, i32 noundef %15)
  store ptr %16, ptr %11, align 8
  %17 = load ptr, ptr %10, align 8
  %18 = icmp ne ptr %17, null
  br i1 %18, label %19, label %28

19:                                               ; preds = %5
  %20 = load ptr, ptr %7, align 8
  %21 = load i32, ptr %8, align 4
  call void @_ZN15ConnectionGraph13add_local_varEP4NodeN12PointsToNode11EscapeStateE(ptr noundef nonnull align 8 dereferenceable(232) %12, ptr noundef %20, i32 noundef %21)
  %22 = load ptr, ptr %11, align 8
  %23 = icmp eq ptr %22, null
  br i1 %23, label %24, label %27

24:                                               ; preds = %19
  %25 = load ptr, ptr %10, align 8
  %26 = load ptr, ptr %7, align 8
  call void @_ZN16Unique_Node_List4pushEP4Node(ptr noundef nonnull align 8 dereferenceable(68) %25, ptr noundef %26)
  br label %36

27:                                               ; preds = %19
  br label %29

28:                                               ; preds = %5
  br label %29

29:                                               ; preds = %28, %27
  %30 = load ptr, ptr %7, align 8
  %31 = getelementptr inbounds %class.Node, ptr %30, i32 0, i32 7
  %32 = load i32, ptr %31, align 8
  %33 = call noundef ptr @_ZNK15ConnectionGraph10ptnode_adrEi(ptr noundef nonnull align 8 dereferenceable(232) %12, i32 noundef %32)
  %34 = load ptr, ptr %11, align 8
  %35 = call noundef zeroext i1 @_ZN15ConnectionGraph8add_edgeEP12PointsToNodeS1_(ptr noundef nonnull align 8 dereferenceable(232) %12, ptr noundef %33, ptr noundef %34)
  br label %36

36:                                               ; preds = %29, %24
  ret void
}

; Function Attrs: mustprogress nounwind uwtable
define linkonce_odr hidden noundef ptr @_ZNK4Node2inEj(ptr noundef nonnull align 8 dereferenceable(52) %0, i32 noundef %1) #1 comdat align 2 {
  %3 = alloca ptr, align 8
  %4 = alloca i32, align 4
  store ptr %0, ptr %3, align 8
  store i32 %1, ptr %4, align 4
  %5 = load ptr, ptr %3, align 8
  %6 = getelementptr inbounds %class.Node, ptr %5, i32 0, i32 1
  %7 = load ptr, ptr %6, align 8
  %8 = load i32, ptr %4, align 4
  %9 = zext i32 %8 to i64
  %10 = getelementptr inbounds ptr, ptr %7, i64 %9
  %11 = load ptr, ptr %10, align 8
  ret ptr %11
}

; Function Attrs: mustprogress nounwind uwtable
define hidden noundef zeroext i1 @_ZNK22ShenandoahBarrierSetC222escape_add_final_edgesEP15ConnectionGraphP8PhaseGVNP4Nodej(ptr noundef nonnull align 8 dereferenceable(8) %0, ptr noundef %1, ptr noundef %2, ptr noundef %3, i32 noundef %4) unnamed_addr #1 align 2 {
  %6 = alloca i1, align 1
  %7 = alloca ptr, align 8
  %8 = alloca ptr, align 8
  %9 = alloca ptr, align 8
  %10 = alloca ptr, align 8
  %11 = alloca i32, align 4
  %12 = alloca ptr, align 8
  store ptr %0, ptr %7, align 8
  store ptr %1, ptr %8, align 8
  store ptr %2, ptr %9, align 8
  store ptr %3, ptr %10, align 8
  store i32 %4, ptr %11, align 4
  %13 = load i32, ptr %11, align 4
  switch i32 %13, label %35 [
    i32 303, label %14
    i32 304, label %14
    i32 306, label %20
    i32 305, label %20
    i32 308, label %20
    i32 307, label %20
    i32 309, label %25
    i32 310, label %30
  ]

14:                                               ; preds = %5, %5
  %15 = load ptr, ptr %10, align 8
  %16 = call noundef ptr @_ZNK4Node2inEj(ptr noundef nonnull align 8 dereferenceable(52) %15, i32 noundef 2)
  store ptr %16, ptr %12, align 8
  %17 = load ptr, ptr %8, align 8
  %18 = load ptr, ptr %10, align 8
  %19 = load ptr, ptr %12, align 8
  call void @_ZN15ConnectionGraph22add_local_var_and_edgeEP4NodeN12PointsToNode11EscapeStateES1_P16Unique_Node_List(ptr noundef nonnull align 8 dereferenceable(232) %17, ptr noundef %18, i32 noundef 1, ptr noundef %19, ptr noundef null)
  br label %20

20:                                               ; preds = %14, %5, %5, %5, %5
  %21 = load ptr, ptr %8, align 8
  %22 = load ptr, ptr %10, align 8
  %23 = load i32, ptr %11, align 4
  %24 = call noundef zeroext i1 @_ZN15ConnectionGraph29add_final_edges_unsafe_accessEP4Nodej(ptr noundef nonnull align 8 dereferenceable(232) %21, ptr noundef %22, i32 noundef %23)
  store i1 %24, ptr %6, align 1
  br label %37

25:                                               ; preds = %5
  %26 = load ptr, ptr %8, align 8
  %27 = load ptr, ptr %10, align 8
  %28 = load ptr, ptr %10, align 8
  %29 = call noundef ptr @_ZNK4Node2inEj(ptr noundef nonnull align 8 dereferenceable(52) %28, i32 noundef 1)
  call void @_ZN15ConnectionGraph22add_local_var_and_edgeEP4NodeN12PointsToNode11EscapeStateES1_P16Unique_Node_List(ptr noundef nonnull align 8 dereferenceable(232) %26, ptr noundef %27, i32 noundef 1, ptr noundef %29, ptr noundef null)
  store i1 true, ptr %6, align 1
  br label %37

30:                                               ; preds = %5
  %31 = load ptr, ptr %8, align 8
  %32 = load ptr, ptr %10, align 8
  %33 = load ptr, ptr %10, align 8
  %34 = call noundef ptr @_ZNK4Node2inEj(ptr noundef nonnull align 8 dereferenceable(52) %33, i32 noundef 1)
  call void @_ZN15ConnectionGraph22add_local_var_and_edgeEP4NodeN12PointsToNode11EscapeStateES1_P16Unique_Node_List(ptr noundef nonnull align 8 dereferenceable(232) %31, ptr noundef %32, i32 noundef 1, ptr noundef %34, ptr noundef null)
  store i1 true, ptr %6, align 1
  br label %37

35:                                               ; preds = %5
  br label %36

36:                                               ; preds = %35
  store i1 false, ptr %6, align 1
  br label %37

37:                                               ; preds = %36, %30, %25, %20
  %38 = load i1, ptr %6, align 1
  ret i1 %38
}