; Function Attrs: mustprogress nounwind uwtable
define hidden noundef zeroext i1 @_ZNK22ShenandoahBarrierSetC222escape_add_final_edgesEP15ConnectionGraphP8PhaseGVNP4Nodej(ptr nocapture nonnull readnone align 8 %0, ptr noundef %1, ptr nocapture readnone %2, ptr noundef %3, i32 noundef %4) unnamed_addr #1 align 2 {
  switch i32 %4, label %62 [
    i32 303, label %6
    i32 304, label %6
    i32 306, label %24
    i32 305, label %24
    i32 308, label %24
    i32 307, label %24
    i32 309, label %26
    i32 310, label %44
  ]

6:                                                ; preds = %5, %5
  %7 = getelementptr inbounds i8, ptr %3, i64 8
  %8 = load ptr, ptr %7, align 8
  %9 = getelementptr inbounds i8, ptr %8, i64 16
  %10 = load ptr, ptr %9, align 8
  %11 = getelementptr inbounds i8, ptr %10, i64 40
  %12 = load i32, ptr %11, align 8
  %13 = getelementptr inbounds i8, ptr %1, i64 8
  %14 = load ptr, ptr %13, align 8
  %15 = sext i32 %12 to i64
  %16 = getelementptr inbounds ptr, ptr %14, i64 %15
  %17 = load ptr, ptr %16, align 8
  %18 = getelementptr inbounds i8, ptr %3, i64 40
  %19 = load i32, ptr %18, align 8
  %20 = sext i32 %19 to i64
  %21 = getelementptr inbounds ptr, ptr %14, i64 %20
  %22 = load ptr, ptr %21, align 8
  %23 = tail call noundef zeroext i1 @_ZN15ConnectionGraph8add_edgeEP12PointsToNodeS1_(ptr noundef nonnull align 8 dereferenceable(232) %1, ptr noundef %22, ptr noundef %17)
  br label %24

24:                                               ; preds = %6, %5, %5, %5, %5
  %25 = tail call noundef zeroext i1 @_ZN15ConnectionGraph29add_final_edges_unsafe_accessEP4Nodej(ptr noundef nonnull align 8 dereferenceable(232) %1, ptr noundef %3, i32 noundef %4) #14
  br label %62

26:                                               ; preds = %5
  %27 = getelementptr inbounds i8, ptr %3, i64 8
  %28 = load ptr, ptr %27, align 8
  %29 = getelementptr inbounds i8, ptr %28, i64 8
  %30 = load ptr, ptr %29, align 8
  %31 = getelementptr inbounds i8, ptr %30, i64 40
  %32 = load i32, ptr %31, align 8
  %33 = getelementptr inbounds i8, ptr %1, i64 8
  %34 = load ptr, ptr %33, align 8
  %35 = sext i32 %32 to i64
  %36 = getelementptr inbounds ptr, ptr %34, i64 %35
  %37 = load ptr, ptr %36, align 8
  %38 = getelementptr inbounds i8, ptr %3, i64 40
  %39 = load i32, ptr %38, align 8
  %40 = sext i32 %39 to i64
  %41 = getelementptr inbounds ptr, ptr %34, i64 %40
  %42 = load ptr, ptr %41, align 8
  %43 = tail call noundef zeroext i1 @_ZN15ConnectionGraph8add_edgeEP12PointsToNodeS1_(ptr noundef nonnull align 8 dereferenceable(232) %1, ptr noundef %42, ptr noundef %37)
  br label %62

44:                                               ; preds = %5
  %45 = getelementptr inbounds i8, ptr %3, i64 8
  %46 = load ptr, ptr %45, align 8
  %47 = getelementptr inbounds i8, ptr %46, i64 8
  %48 = load ptr, ptr %47, align 8
  %49 = getelementptr inbounds i8, ptr %48, i64 40
  %50 = load i32, ptr %49, align 8
  %51 = getelementptr inbounds i8, ptr %1, i64 8
  %52 = load ptr, ptr %51, align 8
  %53 = sext i32 %50 to i64
  %54 = getelementptr inbounds ptr, ptr %52, i64 %53
  %55 = load ptr, ptr %54, align 8
  %56 = getelementptr inbounds i8, ptr %3, i64 40
  %57 = load i32, ptr %56, align 8
  %58 = sext i32 %57 to i64
  %59 = getelementptr inbounds ptr, ptr %52, i64 %58
  %60 = load ptr, ptr %59, align 8
  %61 = tail call noundef zeroext i1 @_ZN15ConnectionGraph8add_edgeEP12PointsToNodeS1_(ptr noundef nonnull align 8 dereferenceable(232) %1, ptr noundef %60, ptr noundef %55)
  br label %62

62:                                               ; preds = %5, %44, %26, %24
  %.0 = phi i1 [ true, %44 ], [ true, %26 ], [ %25, %24 ], [ false, %5 ]
  ret i1 %.0
}